; Function Attrs: mustprogress nofree norecurse nosync nounwind willreturn memory(argmem: write) uwtable
define dso_local range(i32 1, 6) i32 @zipStorePrevEntryLength(ptr noundef writeonly captures(address_is_null) %0, i32 noundef %1) local_unnamed_addr #4 {
  %3 = icmp eq ptr %0, null
  %4 = icmp ult i32 %1, 254
  br i1 %3, label %5, label %7

5:                                                ; preds = %2
  %6 = select i1 %4, i32 1, i32 5
  br label %11

7:                                                ; preds = %2
  br i1 %4, label %8, label %zipStorePrevEntryLengthLarge.exit

8:                                                ; preds = %7
  %9 = trunc nuw i32 %1 to i8
  store i8 %9, ptr %0, align 1, !tbaa !9
  br label %11

zipStorePrevEntryLengthLarge.exit:                ; preds = %7
  store i8 -2, ptr %0, align 1, !tbaa !9
  %10 = getelementptr inbounds nuw i8, ptr %0, i64 1
  store i32 %1, ptr %10, align 1
  br label %11

11:                                               ; preds = %zipStorePrevEntryLengthLarge.exit, %8, %5
  %.0 = phi i32 [ %6, %5 ], [ 1, %8 ], [ 5, %zipStorePrevEntryLengthLarge.exit ]
  ret i32 %.0
}